; Function Attrs: mustprogress nounwind uwtable
define hidden noundef zeroext i1 @_ZN12JvmtiEnvBase20is_vthread_suspendedEP7oopDescP10JavaThread(ptr noundef %0, ptr noundef %1) local_unnamed_addr #0 align 2 {
  %3 = tail call noundef zeroext i1 @_ZN23java_lang_VirtualThread11is_instanceEP7oopDesc(ptr noundef %0) #18
  br i1 %3, label %4, label %6

4:                                                ; preds = %2
  %5 = tail call noundef zeroext i1 @_ZN16JvmtiVTSuspender20is_vthread_suspendedEP7oopDesc(ptr noundef %0) #18
  br label %6

6:                                                ; preds = %4, %2
  %.0 = phi i1 [ %5, %4 ], [ false, %2 ]
  %7 = load ptr, ptr getelementptr inbounds (i8, ptr @_ZN9vmClasses8_klassesE, i64 312), align 8
  %8 = load i8, ptr @UseCompressedClassPointers, align 1
  %9 = trunc i8 %8 to i1
  %10 = getelementptr inbounds i8, ptr %0, i64 8
  br i1 %9, label %11, label %21

11:                                               ; preds = %6
  %12 = load i32, ptr %10, align 8
  %13 = load ptr, ptr @_ZN23CompressedKlassPointers5_baseE, align 8
  %14 = load i32, ptr @_ZN23CompressedKlassPointers6_shiftE, align 4
  %15 = ptrtoint ptr %13 to i64
  %16 = zext i32 %12 to i64
  %17 = zext nneg i32 %14 to i64
  %18 = shl i64 %16, %17
  %19 = add i64 %18, %15
  %20 = inttoptr i64 %19 to ptr
  br label %_ZNK7oopDesc5klassEv.exit.i

21:                                               ; preds = %6
  %22 = load ptr, ptr %10, align 8
  br label %_ZNK7oopDesc5klassEv.exit.i

_ZNK7oopDesc5klassEv.exit.i:                      ; preds = %21, %11
  %.0.i.i = phi ptr [ %20, %11 ], [ %22, %21 ]
  %23 = getelementptr inbounds i8, ptr %7, i64 20
  %24 = load i32, ptr %23, align 4
  %25 = zext i32 %24 to i64
  %26 = getelementptr inbounds i8, ptr %.0.i.i, i64 %25
  %27 = load ptr, ptr %26, align 8
  %28 = icmp eq ptr %27, %7
  br i1 %28, label %_ZNK7oopDesc4is_aEP5Klass.exit.thread, label %29

29:                                               ; preds = %_ZNK7oopDesc5klassEv.exit.i
  %.not.i.i = icmp eq i32 %24, 32
  br i1 %.not.i.i, label %_ZNK7oopDesc4is_aEP5Klass.exit, label %_ZNK7oopDesc4is_aEP5Klass.exit.thread5

_ZNK7oopDesc4is_aEP5Klass.exit:                   ; preds = %29
  %30 = tail call noundef zeroext i1 @_ZNK5Klass23search_secondary_supersEPS_(ptr noundef nonnull align 8 dereferenceable(196) %.0.i.i, ptr noundef nonnull %7) #18
  br i1 %30, label %_ZNK7oopDesc4is_aEP5Klass.exit.thread, label %_ZNK7oopDesc4is_aEP5Klass.exit.thread5

_ZNK7oopDesc4is_aEP5Klass.exit.thread:            ; preds = %_ZNK7oopDesc5klassEv.exit.i, %_ZNK7oopDesc4is_aEP5Klass.exit
  %31 = getelementptr inbounds i8, ptr %1, i64 1513
  %32 = load volatile i8, ptr %31, align 1
  %33 = trunc i8 %32 to i1
  br label %_ZNK7oopDesc4is_aEP5Klass.exit.thread5

_ZNK7oopDesc4is_aEP5Klass.exit.thread5:           ; preds = %29, %_ZNK7oopDesc4is_aEP5Klass.exit.thread, %_ZNK7oopDesc4is_aEP5Klass.exit
  %.1 = phi i1 [ %33, %_ZNK7oopDesc4is_aEP5Klass.exit.thread ], [ %.0, %_ZNK7oopDesc4is_aEP5Klass.exit ], [ %.0, %29 ]
  ret i1 %.1
}